; Function Attrs: mustprogress uwtable
define internal fastcc void @_ZN5ImStbL18stb_textedit_pasteEP19ImGuiInputTextStatePNS_17STB_TexteditStateEPKci(ptr noundef captures(none) %0, ptr noundef captures(address) %1, ptr noundef readonly captures(none) %2, i32 noundef range(i32 1, -2147483648) %3) unnamed_addr #5 {
  %5 = getelementptr i8, ptr %0, i64 20
  %.val.i = load i32, ptr %5, align 4, !tbaa !384
  %6 = getelementptr inbounds nuw i8, ptr %1, i64 4
  %7 = load i32, ptr %6, align 4, !tbaa !387
  %8 = getelementptr inbounds nuw i8, ptr %1, i64 8
  %9 = load i32, ptr %8, align 4, !tbaa !388
  %.not.i.i = icmp eq i32 %7, %9
  br i1 %.not.i.i, label %21, label %10

10:                                               ; preds = %4
  %11 = icmp sgt i32 %7, %.val.i
  br i1 %11, label %12, label %13

12:                                               ; preds = %10
  store i32 %.val.i, ptr %6, align 4, !tbaa !387
  br label %13

13:                                               ; preds = %12, %10
  %14 = phi i32 [ %.val.i, %12 ], [ %7, %10 ]
  %15 = icmp sgt i32 %9, %.val.i
  br i1 %15, label %16, label %17

16:                                               ; preds = %13
  store i32 %.val.i, ptr %8, align 4, !tbaa !388
  br label %17

17:                                               ; preds = %16, %13
  %18 = phi i32 [ %.val.i, %16 ], [ %9, %13 ]
  %19 = icmp eq i32 %14, %18
  br i1 %19, label %20, label %21

20:                                               ; preds = %17
  store i32 %14, ptr %1, align 4, !tbaa !386
  br label %21

21:                                               ; preds = %20, %17, %4
  %22 = load i32, ptr %1, align 4, !tbaa !386
  %23 = icmp sgt i32 %22, %.val.i
  br i1 %23, label %24, label %_ZN5ImStbL18stb_textedit_clampEP19ImGuiInputTextStatePNS_17STB_TexteditStateE.exit.i

24:                                               ; preds = %21
  store i32 %.val.i, ptr %1, align 4, !tbaa !386
  br label %_ZN5ImStbL18stb_textedit_clampEP19ImGuiInputTextStatePNS_17STB_TexteditStateE.exit.i

_ZN5ImStbL18stb_textedit_clampEP19ImGuiInputTextStatePNS_17STB_TexteditStateE.exit.i: ; preds = %24, %21
  tail call fastcc void @_ZN5ImStbL29stb_textedit_delete_selectionEP19ImGuiInputTextStatePNS_17STB_TexteditStateE(ptr noundef nonnull %0, ptr noundef nonnull %1)
  %25 = load i32, ptr %1, align 4, !tbaa !386
  %26 = tail call fastcc noundef zeroext i1 @_ZN5ImStbL24STB_TEXTEDIT_INSERTCHARSEP19ImGuiInputTextStateiPKci(ptr noundef nonnull %0, i32 noundef %25, ptr noundef readonly %2, i32 noundef range(i32 1, -2147483648) %3)
  br i1 %26, label %27, label %_ZN5ImStbL27stb_textedit_paste_internalEP19ImGuiInputTextStatePNS_17STB_TexteditStateEPci.exit

27:                                               ; preds = %_ZN5ImStbL18stb_textedit_clampEP19ImGuiInputTextStatePNS_17STB_TexteditStateE.exit.i
  %28 = load i32, ptr %1, align 4, !tbaa !386
  %29 = getelementptr inbounds nuw i8, ptr %1, i64 32
  %30 = tail call fastcc noundef ptr @_ZN5ImStbL19stb_text_createundoEPNS_12StbUndoStateEiii(ptr noundef nonnull %29, i32 noundef %28, i32 noundef 0, i32 noundef range(i32 1, -2147483648) %3)
  %31 = load i32, ptr %1, align 4, !tbaa !386
  %32 = add nsw i32 %31, %3
  store i32 %32, ptr %1, align 4, !tbaa !386
  %33 = getelementptr inbounds nuw i8, ptr %1, i64 22
  store i8 0, ptr %33, align 2, !tbaa !393
  br label %_ZN5ImStbL27stb_textedit_paste_internalEP19ImGuiInputTextStatePNS_17STB_TexteditStateEPci.exit

_ZN5ImStbL27stb_textedit_paste_internalEP19ImGuiInputTextStatePNS_17STB_TexteditStateEPci.exit: ; preds = %_ZN5ImStbL18stb_textedit_clampEP19ImGuiInputTextStatePNS_17STB_TexteditStateE.exit.i, %27
  ret void
}